; Function Attrs: mustprogress nofree nounwind willreturn memory(write, argmem: none, inaccessiblemem: readwrite) uwtable
define noalias noundef ptr @Kit_DsdNtkAlloc(i32 noundef %0) local_unnamed_addr #9 {
  %calloc = tail call dereferenceable_or_null(32) ptr @calloc(i64 1, i64 32)
  %2 = add nsw i32 %0, 1
  %3 = sext i32 %2 to i64
  %4 = shl nsw i64 %3, 3
  %5 = tail call noalias ptr @malloc(i64 noundef %4) #26
  %6 = getelementptr inbounds nuw i8, ptr %calloc, i64 24
  store ptr %5, ptr %6, align 8, !tbaa !40
  %7 = trunc i32 %0 to i16
  store i16 %7, ptr %calloc, align 8, !tbaa !34
  %8 = trunc i32 %2 to i16
  %9 = getelementptr inbounds nuw i8, ptr %calloc, i64 2
  store i16 %8, ptr %9, align 2, !tbaa !39
  %10 = icmp slt i32 %0, 6
  %11 = add nsw i32 %0, -5
  %12 = shl i32 6, %11
  %13 = select i1 %10, i32 6, i32 %12
  %14 = sext i32 %13 to i64
  %15 = shl nsw i64 %14, 2
  %16 = tail call noalias ptr @malloc(i64 noundef %15) #26
  %17 = getelementptr inbounds nuw i8, ptr %calloc, i64 8
  store ptr %16, ptr %17, align 8, !tbaa !43
  ret ptr %calloc
}